; Function Attrs: mustprogress nounwind uwtable
define hidden void @_ZN4LIEF5MachO14SegmentCommand11update_dataERKSt8functionIFvRSt6vectorIhSaIhEEmmEEmm(ptr noundef nonnull align 8 dereferenceable(216) %0, ptr noundef nonnull align 8 dereferenceable(32) %1, i64 noundef %2, i64 noundef %3) unnamed_addr #0 align 2 {
  %5 = alloca i64, align 8
  %6 = alloca i64, align 8
  call void @llvm.lifetime.start.p0(i64 8, ptr nonnull %5)
  call void @llvm.lifetime.start.p0(i64 8, ptr nonnull %6)
  store i64 %2, ptr %5, align 8, !tbaa !53
  store i64 %3, ptr %6, align 8, !tbaa !53
  %7 = getelementptr inbounds nuw i8, ptr %1, i64 16
  %8 = load ptr, ptr %7, align 8, !tbaa !105
  %.not.i.i = icmp eq ptr %8, null
  br i1 %.not.i.i, label %9, label %_ZNKSt8functionIFvRSt6vectorIhSaIhEEmmEEclES3_mm.exit

9:                                                ; preds = %4
  tail call void @_ZSt25__throw_bad_function_callv() #26
  unreachable

_ZNKSt8functionIFvRSt6vectorIhSaIhEEmmEEclES3_mm.exit: ; preds = %4
  %10 = getelementptr inbounds nuw i8, ptr %0, i64 144
  %11 = getelementptr inbounds nuw i8, ptr %1, i64 24
  %12 = load ptr, ptr %11, align 8, !tbaa !109
  call void %12(ptr noundef nonnull align 8 dereferenceable(32) %1, ptr noundef nonnull align 8 dereferenceable(24) %10, ptr noundef nonnull align 8 dereferenceable(8) %5, ptr noundef nonnull align 8 dereferenceable(8) %6) #24
  call void @llvm.lifetime.end.p0(i64 8, ptr nonnull %5)
  call void @llvm.lifetime.end.p0(i64 8, ptr nonnull %6)
  ret void
}